; ModuleID = 'source-C-CXX/11/1341.cpp'
source_filename = "source-C-CXX/11/1341.cpp"
target datalayout = "e-m:e-p270:32:32-p271:32:32-p272:64:64-i64:64-f80:128-n8:16:32:64-S128"
target triple = "x86_64-pc-linux-gnu"

%"class.std::ios_base::Init" = type { i8 }
%"class.std::basic_istream" = type { i32 (...)**, i64, %"class.std::basic_ios" }
%"class.std::basic_ios" = type { %"class.std::ios_base", %"class.std::basic_ostream"*, i8, i8, %"class.std::basic_streambuf"*, %"class.std::ctype"*, %"class.std::num_put"*, %"class.std::num_get"* }
%"class.std::ios_base" = type { i32 (...)**, i64, i64, i32, i32, i32, %"struct.std::ios_base::_Callback_list"*, %"struct.std::ios_base::_Words", [8 x %"struct.std::ios_base::_Words"], i32, %"struct.std::ios_base::_Words"*, %"class.std::locale" }
%"struct.std::ios_base::_Callback_list" = type { %"struct.std::ios_base::_Callback_list"*, void (i32, %"class.std::ios_base"*, i32)*, i32, i32 }
%"struct.std::ios_base::_Words" = type { i8*, i64 }
%"class.std::locale" = type { %"class.std::locale::_Impl"* }
%"class.std::locale::_Impl" = type { i32, %"class.std::locale::facet"**, i64, %"class.std::locale::facet"**, i8** }
%"class.std::locale::facet" = type <{ i32 (...)**, i32, [4 x i8] }>
%"class.std::basic_ostream" = type { i32 (...)**, %"class.std::basic_ios" }
%"class.std::basic_streambuf" = type { i32 (...)**, i8*, i8*, i8*, i8*, i8*, i8*, %"class.std::locale" }
%"class.std::ctype" = type <{ %"class.std::locale::facet.base", [4 x i8], %struct.__locale_struct*, i8, [7 x i8], i32*, i32*, i16*, i8, [256 x i8], [256 x i8], i8, [6 x i8] }>
%"class.std::locale::facet.base" = type <{ i32 (...)**, i32 }>
%struct.__locale_struct = type { [13 x %struct.__locale_data*], i16*, i32*, i32*, [13 x i8*] }
%struct.__locale_data = type opaque
%"class.std::num_put" = type { %"class.std::locale::facet.base", [4 x i8] }
%"class.std::num_get" = type { %"class.std::locale::facet.base", [4 x i8] }

@_ZStL8__ioinit = internal global %"class.std::ios_base::Init" zeroinitializer, align 1
@__dso_handle = external hidden global i8
@_ZSt3cin = external global %"class.std::basic_istream", align 8
@_ZSt4cout = external global %"class.std::basic_ostream", align 8
@llvm.global_ctors = appending global [1 x { i32, void ()*, i8* }] [{ i32, void ()*, i8* } { i32 65535, void ()* @_GLOBAL__sub_I_1341.cpp, i8* null }]

declare void @_ZNSt8ios_base4InitC1Ev(%"class.std::ios_base::Init"* nonnull align 1 dereferenceable(1)) unnamed_addr #0

; Function Attrs: nounwind
declare void @_ZNSt8ios_base4InitD1Ev(%"class.std::ios_base::Init"* nonnull align 1 dereferenceable(1)) unnamed_addr #1

; Function Attrs: nofree nounwind
declare i32 @__cxa_atexit(void (i8*)*, i8*, i8*) local_unnamed_addr #2

; Function Attrs: mustprogress norecurse sspstrong uwtable
define dso_local i32 @main() local_unnamed_addr #3 {
  %1 = alloca [17 x i32], align 16
  %2 = bitcast [17 x i32]* %1 to i8*
  call void @llvm.lifetime.start.p0i8(i64 68, i8* nonnull %2) #9
  %3 = getelementptr inbounds [17 x i32], [17 x i32]* %1, i64 0, i64 1
  %4 = call nonnull align 8 dereferenceable(16) %"class.std::basic_istream"* @_ZNSirsERi(%"class.std::basic_istream"* nonnull align 8 dereferenceable(16) @_ZSt3cin, i32* nonnull align 4 dereferenceable(4) %3)
  %5 = load i32, i32* %3, align 4, !tbaa !5
  %6 = icmp eq i32 %5, -1
  br i1 %6, label %165, label %7

7:                                                ; preds = %0, %158
  %8 = phi i32 [ %163, %158 ], [ %5, %0 ]
  %9 = icmp eq i32 %8, 0
  br i1 %9, label %12, label %29

10:                                               ; preds = %29
  %11 = trunc i64 %31 to i32
  br label %12

12:                                               ; preds = %10, %7
  %13 = phi i32 [ 1, %7 ], [ %11, %10 ]
  %14 = call i32 @llvm.umax.i32(i32 %13, i32 1)
  %15 = add i32 %14, 1
  %16 = zext i32 %15 to i64
  %17 = add nsw i64 %16, -1
  %18 = add nsw i64 %16, -9
  %19 = lshr i64 %18, 3
  %20 = add nuw nsw i64 %19, 1
  %21 = icmp ult i64 %17, 8
  %22 = and i64 %17, -8
  %23 = or i64 %22, 1
  %24 = and i64 %20, 1
  %25 = icmp ult i64 %18, 8
  %26 = and i64 %20, 4611686018427387902
  %27 = icmp eq i64 %24, 0
  %28 = icmp eq i64 %17, %22
  br label %36

29:                                               ; preds = %7, %29
  %30 = phi i64 [ %31, %29 ], [ 1, %7 ]
  %31 = add nuw nsw i64 %30, 1
  %32 = getelementptr inbounds [17 x i32], [17 x i32]* %1, i64 0, i64 %31
  %33 = call nonnull align 8 dereferenceable(16) %"class.std::basic_istream"* @_ZNSirsERi(%"class.std::basic_istream"* nonnull align 8 dereferenceable(16) @_ZSt3cin, i32* nonnull align 4 dereferenceable(4) %32)
  %34 = load i32, i32* %32, align 4, !tbaa !5
  %35 = icmp eq i32 %34, 0
  br i1 %35, label %10, label %29, !llvm.loop !9

36:                                               ; preds = %12, %126
  %37 = phi i64 [ 1, %12 ], [ %128, %126 ]
  %38 = phi i32 [ 0, %12 ], [ %127, %126 ]
  %39 = getelementptr inbounds [17 x i32], [17 x i32]* %1, i64 0, i64 %37
  %40 = load i32, i32* %39, align 4, !tbaa !5
  br i1 %21, label %112, label %41

41:                                               ; preds = %36
  %42 = insertelement <4 x i32> <i32 poison, i32 0, i32 0, i32 0>, i32 %38, i32 0
  %43 = insertelement <4 x i32> poison, i32 %40, i32 0
  %44 = shufflevector <4 x i32> %43, <4 x i32> poison, <4 x i32> zeroinitializer
  %45 = insertelement <4 x i32> poison, i32 %40, i32 0
  %46 = shufflevector <4 x i32> %45, <4 x i32> poison, <4 x i32> zeroinitializer
  br i1 %25, label %85, label %47

47:                                               ; preds = %41, %47
  %48 = phi i64 [ %82, %47 ], [ 0, %41 ]
  %49 = phi <4 x i32> [ %80, %47 ], [ %42, %41 ]
  %50 = phi <4 x i32> [ %81, %47 ], [ zeroinitializer, %41 ]
  %51 = phi i64 [ %83, %47 ], [ %26, %41 ]
  %52 = or i64 %48, 1
  %53 = getelementptr inbounds [17 x i32], [17 x i32]* %1, i64 0, i64 %52
  %54 = bitcast i32* %53 to <4 x i32>*
  %55 = load <4 x i32>, <4 x i32>* %54, align 4, !tbaa !5
  %56 = getelementptr inbounds i32, i32* %53, i64 4
  %57 = bitcast i32* %56 to <4 x i32>*
  %58 = load <4 x i32>, <4 x i32>* %57, align 4, !tbaa !5
  %59 = shl nsw <4 x i32> %55, <i32 1, i32 1, i32 1, i32 1>
  %60 = shl nsw <4 x i32> %58, <i32 1, i32 1, i32 1, i32 1>
  %61 = icmp eq <4 x i32> %44, %59
  %62 = icmp eq <4 x i32> %46, %60
  %63 = zext <4 x i1> %61 to <4 x i32>
  %64 = zext <4 x i1> %62 to <4 x i32>
  %65 = add <4 x i32> %49, %63
  %66 = add <4 x i32> %50, %64
  %67 = or i64 %48, 9
  %68 = getelementptr inbounds [17 x i32], [17 x i32]* %1, i64 0, i64 %67
  %69 = bitcast i32* %68 to <4 x i32>*
  %70 = load <4 x i32>, <4 x i32>* %69, align 4, !tbaa !5
  %71 = getelementptr inbounds i32, i32* %68, i64 4
  %72 = bitcast i32* %71 to <4 x i32>*
  %73 = load <4 x i32>, <4 x i32>* %72, align 4, !tbaa !5
  %74 = shl nsw <4 x i32> %70, <i32 1, i32 1, i32 1, i32 1>
  %75 = shl nsw <4 x i32> %73, <i32 1, i32 1, i32 1, i32 1>
  %76 = icmp eq <4 x i32> %44, %74
  %77 = icmp eq <4 x i32> %46, %75
  %78 = zext <4 x i1> %76 to <4 x i32>
  %79 = zext <4 x i1> %77 to <4 x i32>
  %80 = add <4 x i32> %65, %78
  %81 = add <4 x i32> %66, %79
  %82 = add nuw i64 %48, 16
  %83 = add i64 %51, -2
  %84 = icmp eq i64 %83, 0
  br i1 %84, label %85, label %47, !llvm.loop !11

85:                                               ; preds = %47, %41
  %86 = phi <4 x i32> [ undef, %41 ], [ %80, %47 ]
  %87 = phi <4 x i32> [ undef, %41 ], [ %81, %47 ]
  %88 = phi i64 [ 0, %41 ], [ %82, %47 ]
  %89 = phi <4 x i32> [ %42, %41 ], [ %80, %47 ]
  %90 = phi <4 x i32> [ zeroinitializer, %41 ], [ %81, %47 ]
  br i1 %27, label %107, label %91

91:                                               ; preds = %85
  %92 = or i64 %88, 1
  %93 = getelementptr inbounds [17 x i32], [17 x i32]* %1, i64 0, i64 %92
  %94 = getelementptr inbounds i32, i32* %93, i64 4
  %95 = bitcast i32* %94 to <4 x i32>*
  %96 = load <4 x i32>, <4 x i32>* %95, align 4, !tbaa !5
  %97 = shl nsw <4 x i32> %96, <i32 1, i32 1, i32 1, i32 1>
  %98 = icmp eq <4 x i32> %46, %97
  %99 = zext <4 x i1> %98 to <4 x i32>
  %100 = add <4 x i32> %90, %99
  %101 = bitcast i32* %93 to <4 x i32>*
  %102 = load <4 x i32>, <4 x i32>* %101, align 4, !tbaa !5
  %103 = shl nsw <4 x i32> %102, <i32 1, i32 1, i32 1, i32 1>
  %104 = icmp eq <4 x i32> %44, %103
  %105 = zext <4 x i1> %104 to <4 x i32>
  %106 = add <4 x i32> %89, %105
  br label %107

107:                                              ; preds = %85, %91
  %108 = phi <4 x i32> [ %86, %85 ], [ %106, %91 ]
  %109 = phi <4 x i32> [ %87, %85 ], [ %100, %91 ]
  %110 = add <4 x i32> %109, %108
  %111 = call i32 @llvm.vector.reduce.add.v4i32(<4 x i32> %110)
  br i1 %28, label %126, label %112

112:                                              ; preds = %36, %107
  %113 = phi i64 [ 1, %36 ], [ %23, %107 ]
  %114 = phi i32 [ %38, %36 ], [ %111, %107 ]
  br label %115

115:                                              ; preds = %112, %115
  %116 = phi i64 [ %124, %115 ], [ %113, %112 ]
  %117 = phi i32 [ %123, %115 ], [ %114, %112 ]
  %118 = getelementptr inbounds [17 x i32], [17 x i32]* %1, i64 0, i64 %116
  %119 = load i32, i32* %118, align 4, !tbaa !5
  %120 = shl nsw i32 %119, 1
  %121 = icmp eq i32 %40, %120
  %122 = zext i1 %121 to i32
  %123 = add nsw i32 %117, %122
  %124 = add nuw nsw i64 %116, 1
  %125 = icmp eq i64 %124, %16
  br i1 %125, label %126, label %115, !llvm.loop !13

126:                                              ; preds = %115, %107
  %127 = phi i32 [ %111, %107 ], [ %123, %115 ]
  %128 = add nuw nsw i64 %37, 1
  %129 = icmp eq i64 %128, %16
  br i1 %129, label %130, label %36, !llvm.loop !15

130:                                              ; preds = %126
  %131 = add nsw i32 %127, -1
  %132 = call nonnull align 8 dereferenceable(8) %"class.std::basic_ostream"* @_ZNSolsEi(%"class.std::basic_ostream"* nonnull align 8 dereferenceable(8) @_ZSt4cout, i32 %131)
  %133 = bitcast %"class.std::basic_ostream"* %132 to i8**
  %134 = load i8*, i8** %133, align 8, !tbaa !16
  %135 = getelementptr i8, i8* %134, i64 -24
  %136 = bitcast i8* %135 to i64*
  %137 = load i64, i64* %136, align 8
  %138 = bitcast %"class.std::basic_ostream"* %132 to i8*
  %139 = add nsw i64 %137, 240
  %140 = getelementptr inbounds i8, i8* %138, i64 %139
  %141 = bitcast i8* %140 to %"class.std::ctype"**
  %142 = load %"class.std::ctype"*, %"class.std::ctype"** %141, align 8, !tbaa !18
  %143 = icmp eq %"class.std::ctype"* %142, null
  br i1 %143, label %144, label %145

144:                                              ; preds = %130
  call void @_ZSt16__throw_bad_castv() #10
  unreachable

145:                                              ; preds = %130
  %146 = getelementptr inbounds %"class.std::ctype", %"class.std::ctype"* %142, i64 0, i32 8
  %147 = load i8, i8* %146, align 8, !tbaa !22
  %148 = icmp eq i8 %147, 0
  br i1 %148, label %152, label %149

149:                                              ; preds = %145
  %150 = getelementptr inbounds %"class.std::ctype", %"class.std::ctype"* %142, i64 0, i32 9, i64 10
  %151 = load i8, i8* %150, align 1, !tbaa !24
  br label %158

152:                                              ; preds = %145
  call void @_ZNKSt5ctypeIcE13_M_widen_initEv(%"class.std::ctype"* nonnull align 8 dereferenceable(570) %142)
  %153 = bitcast %"class.std::ctype"* %142 to i8 (%"class.std::ctype"*, i8)***
  %154 = load i8 (%"class.std::ctype"*, i8)**, i8 (%"class.std::ctype"*, i8)*** %153, align 8, !tbaa !16
  %155 = getelementptr inbounds i8 (%"class.std::ctype"*, i8)*, i8 (%"class.std::ctype"*, i8)** %154, i64 6
  %156 = load i8 (%"class.std::ctype"*, i8)*, i8 (%"class.std::ctype"*, i8)** %155, align 8
  %157 = call signext i8 %156(%"class.std::ctype"* nonnull align 8 dereferenceable(570) %142, i8 signext 10)
  br label %158

158:                                              ; preds = %149, %152
  %159 = phi i8 [ %151, %149 ], [ %157, %152 ]
  %160 = call nonnull align 8 dereferenceable(8) %"class.std::basic_ostream"* @_ZNSo3putEc(%"class.std::basic_ostream"* nonnull align 8 dereferenceable(8) %132, i8 signext %159)
  %161 = call nonnull align 8 dereferenceable(8) %"class.std::basic_ostream"* @_ZNSo5flushEv(%"class.std::basic_ostream"* nonnull align 8 dereferenceable(8) %160)
  %162 = call nonnull align 8 dereferenceable(16) %"class.std::basic_istream"* @_ZNSirsERi(%"class.std::basic_istream"* nonnull align 8 dereferenceable(16) @_ZSt3cin, i32* nonnull align 4 dereferenceable(4) %3)
  %163 = load i32, i32* %3, align 4, !tbaa !5
  %164 = icmp eq i32 %163, -1
  br i1 %164, label %165, label %7, !llvm.loop !25

165:                                              ; preds = %158, %0
  call void @llvm.lifetime.end.p0i8(i64 68, i8* nonnull %2) #9
  ret i32 0
}

; Function Attrs: argmemonly mustprogress nofree nosync nounwind willreturn
declare void @llvm.lifetime.start.p0i8(i64 immarg, i8* nocapture) #4

declare nonnull align 8 dereferenceable(16) %"class.std::basic_istream"* @_ZNSirsERi(%"class.std::basic_istream"* nonnull align 8 dereferenceable(16), i32* nonnull align 4 dereferenceable(4)) local_unnamed_addr #0

declare nonnull align 8 dereferenceable(8) %"class.std::basic_ostream"* @_ZNSolsEi(%"class.std::basic_ostream"* nonnull align 8 dereferenceable(8), i32) local_unnamed_addr #0

; Function Attrs: argmemonly mustprogress nofree nosync nounwind willreturn
declare void @llvm.lifetime.end.p0i8(i64 immarg, i8* nocapture) #4

declare nonnull align 8 dereferenceable(8) %"class.std::basic_ostream"* @_ZNSo3putEc(%"class.std::basic_ostream"* nonnull align 8 dereferenceable(8), i8 signext) local_unnamed_addr #0

declare nonnull align 8 dereferenceable(8) %"class.std::basic_ostream"* @_ZNSo5flushEv(%"class.std::basic_ostream"* nonnull align 8 dereferenceable(8)) local_unnamed_addr #0

; Function Attrs: noreturn
declare void @_ZSt16__throw_bad_castv() local_unnamed_addr #5

declare void @_ZNKSt5ctypeIcE13_M_widen_initEv(%"class.std::ctype"* nonnull align 8 dereferenceable(570)) local_unnamed_addr #0

; Function Attrs: sspstrong uwtable
define internal void @_GLOBAL__sub_I_1341.cpp() #6 section ".text.startup" {
  tail call void @_ZNSt8ios_base4InitC1Ev(%"class.std::ios_base::Init"* nonnull align 1 dereferenceable(1) @_ZStL8__ioinit)
  %1 = tail call i32 @__cxa_atexit(void (i8*)* bitcast (void (%"class.std::ios_base::Init"*)* @_ZNSt8ios_base4InitD1Ev to void (i8*)*), i8* getelementptr inbounds (%"class.std::ios_base::Init", %"class.std::ios_base::Init"* @_ZStL8__ioinit, i64 0, i32 0), i8* nonnull @__dso_handle) #9
  ret void
}

; Function Attrs: nofree nosync nounwind readnone speculatable willreturn
declare i32 @llvm.umax.i32(i32, i32) #7

; Function Attrs: nofree nosync nounwind readnone willreturn
declare i32 @llvm.vector.reduce.add.v4i32(<4 x i32>) #8


!llvm.module.flags = !{!0, !1, !2, !3}
!llvm.ident = !{!4}

!0 = !{i32 1, !"wchar_size", i32 4}
!1 = !{i32 7, !"PIC Level", i32 2}
!2 = !{i32 7, !"PIE Level", i32 2}
!3 = !{i32 7, !"uwtable", i32 1}
!4 = !{!"clang version 13.0.0"}
!5 = !{!6, !6, i64 0}
!6 = !{!"int", !7, i64 0}
!7 = !{!"omnipotent char", !8, i64 0}
!8 = !{!"Simple C++ TBAA"}
!9 = distinct !{!9, !10}
!10 = !{!"llvm.loop.mustprogress"}
!11 = distinct !{!11, !10, !12}
!12 = !{!"llvm.loop.isvectorized", i32 1}
!13 = distinct !{!13, !10, !14, !12}
!14 = !{!"llvm.loop.unroll.runtime.disable"}
!15 = distinct !{!15, !10}
!16 = !{!17, !17, i64 0}
!17 = !{!"vtable pointer", !8, i64 0}
!18 = !{!19, !20, i64 240}
!19 = !{!"_ZTSSt9basic_iosIcSt11char_traitsIcEE", !20, i64 216, !7, i64 224, !21, i64 225, !20, i64 232, !20, i64 240, !20, i64 248, !20, i64 256}
!20 = !{!"any pointer", !7, i64 0}
!21 = !{!"bool", !7, i64 0}
!22 = !{!23, !7, i64 56}
!23 = !{!"_ZTSSt5ctypeIcE", !20, i64 16, !21, i64 24, !20, i64 32, !20, i64 40, !20, i64 48, !7, i64 56, !7, i64 57, !7, i64 313, !7, i64 569}
!24 = !{!7, !7, i64 0}
!25 = distinct !{!25, !10}
